; Function Attrs: nofree nounwind uwtable
define noundef i32 @myprintf(ptr noundef readonly captures(none) %0, ...) local_unnamed_addr #13 {
  %2 = alloca [1 x %struct.__va_list_tag], align 16
  call void @llvm.lifetime.start.p0(i64 24, ptr nonnull %2) #34
  call void @llvm.va_start.p0(ptr nonnull %2)
  %3 = load ptr, ptr @stdout, align 8, !tbaa !42, !noalias !45
  %4 = call i32 @vfprintf(ptr noundef %3, ptr noundef %0, ptr noundef nonnull %2) #34
  call void @llvm.va_end.p0(ptr nonnull %2)
  call void @llvm.lifetime.end.p0(i64 24, ptr nonnull %2) #34
  ret i32 %4
}